
6_11内建函数/bin/expect_O2:     file format elf32-littlearm


Disassembly of section .init:

000103b8 <_init>:
   103b8:	e92d4008 	push	{r3, lr}
   103bc:	eb000052 	bl	1050c <call_weak_fn>
   103c0:	e8bd8008 	pop	{r3, pc}

Disassembly of section .plt:

000103c4 <.plt>:
   103c4:	e52de004 	push	{lr}		; (str lr, [sp, #-4]!)
   103c8:	e59fe004 	ldr	lr, [pc, #4]	; 103d4 <.plt+0x10>
   103cc:	e08fe00e 	add	lr, pc, lr
   103d0:	e5bef008 	ldr	pc, [lr, #8]!
   103d4:	00010c2c 	andeq	r0, r1, ip, lsr #24

000103d8 <__libc_start_main@plt>:
   103d8:	e28fc600 	add	ip, pc, #0, 12
   103dc:	e28cca10 	add	ip, ip, #16, 20	; 0x10000
   103e0:	e5bcfc2c 	ldr	pc, [ip, #3116]!	; 0xc2c

000103e4 <__stack_chk_fail@plt>:
   103e4:	e28fc600 	add	ip, pc, #0, 12
   103e8:	e28cca10 	add	ip, ip, #16, 20	; 0x10000
   103ec:	e5bcfc24 	ldr	pc, [ip, #3108]!	; 0xc24

000103f0 <__gmon_start__@plt>:
   103f0:	e28fc600 	add	ip, pc, #0, 12
   103f4:	e28cca10 	add	ip, ip, #16, 20	; 0x10000
   103f8:	e5bcfc1c 	ldr	pc, [ip, #3100]!	; 0xc1c

000103fc <__printf_chk@plt>:
   103fc:	e28fc600 	add	ip, pc, #0, 12
   10400:	e28cca10 	add	ip, ip, #16, 20	; 0x10000
   10404:	e5bcfc14 	ldr	pc, [ip, #3092]!	; 0xc14

00010408 <__isoc99_scanf@plt>:
   10408:	e28fc600 	add	ip, pc, #0, 12
   1040c:	e28cca10 	add	ip, ip, #16, 20	; 0x10000
   10410:	e5bcfc0c 	ldr	pc, [ip, #3084]!	; 0xc0c

00010414 <abort@plt>:
   10414:	e28fc600 	add	ip, pc, #0, 12
   10418:	e28cca10 	add	ip, ip, #16, 20	; 0x10000
   1041c:	e5bcfc04 	ldr	pc, [ip, #3076]!	; 0xc04

Disassembly of section .text:

00010420 <main>:
   10420:	e52de004 	push	{lr}		; (str lr, [sp, #-4]!)
   10424:	e59f3090 	ldr	r3, [pc, #144]	; 104bc <main+0x9c>
   10428:	e24dd00c 	sub	sp, sp, #12
   1042c:	e1a0100d 	mov	r1, sp
   10430:	e59f0088 	ldr	r0, [pc, #136]	; 104c0 <main+0xa0>
   10434:	e5933000 	ldr	r3, [r3]
   10438:	e58d3004 	str	r3, [sp, #4]
   1043c:	e3a03000 	mov	r3, #0
   10440:	ebfffff0 	bl	10408 <__isoc99_scanf@plt>
   10444:	e59d3000 	ldr	r3, [sp]
   10448:	e3530000 	cmp	r3, #0
   1044c:	0a000010 	beq	10494 <main+0x74>
   10450:	e3a02005 	mov	r2, #5
   10454:	e59f1064 	ldr	r1, [pc, #100]	; 104c0 <main+0xa0>
   10458:	e3a00001 	mov	r0, #1
   1045c:	ebffffe6 	bl	103fc <__printf_chk@plt>
   10460:	e3a02006 	mov	r2, #6
   10464:	e3a00001 	mov	r0, #1
   10468:	e59f1054 	ldr	r1, [pc, #84]	; 104c4 <main+0xa4>
   1046c:	ebffffe2 	bl	103fc <__printf_chk@plt>
   10470:	e59f3044 	ldr	r3, [pc, #68]	; 104bc <main+0x9c>
   10474:	e5932000 	ldr	r2, [r3]
   10478:	e59d3004 	ldr	r3, [sp, #4]
   1047c:	e0332002 	eors	r2, r3, r2
   10480:	e3a03000 	mov	r3, #0
   10484:	1a00000b 	bne	104b8 <main+0x98>
   10488:	e3a00000 	mov	r0, #0
   1048c:	e28dd00c 	add	sp, sp, #12
   10490:	e49df004 	pop	{pc}		; (ldr pc, [sp], #4)
   10494:	e3a02001 	mov	r2, #1
   10498:	e59f1020 	ldr	r1, [pc, #32]	; 104c0 <main+0xa0>
   1049c:	e1a00002 	mov	r0, r2
   104a0:	ebffffd5 	bl	103fc <__printf_chk@plt>
   104a4:	e3a02002 	mov	r2, #2
   104a8:	e59f1014 	ldr	r1, [pc, #20]	; 104c4 <main+0xa4>
   104ac:	e3a00001 	mov	r0, #1
   104b0:	ebffffd1 	bl	103fc <__printf_chk@plt>
   104b4:	eaffffed 	b	10470 <main+0x50>
   104b8:	ebffffc9 	bl	103e4 <__stack_chk_fail@plt>
   104bc:	00020f08 	andeq	r0, r2, r8, lsl #30
   104c0:	0001065c 	andeq	r0, r1, ip, asr r6
   104c4:	00010660 	andeq	r0, r1, r0, ror #12

000104c8 <_start>:
   104c8:	e3a0b000 	mov	fp, #0
   104cc:	e3a0e000 	mov	lr, #0
   104d0:	e49d1004 	pop	{r1}		; (ldr r1, [sp], #4)
   104d4:	e1a0200d 	mov	r2, sp
   104d8:	e52d2004 	push	{r2}		; (str r2, [sp, #-4]!)
   104dc:	e52d0004 	push	{r0}		; (str r0, [sp, #-4]!)
   104e0:	e59fa01c 	ldr	sl, [pc, #28]	; 10504 <_start+0x3c>
   104e4:	e28f3018 	add	r3, pc, #24
   104e8:	e08aa003 	add	sl, sl, r3
   104ec:	e3a03000 	mov	r3, #0
   104f0:	e52d3004 	push	{r3}		; (str r3, [sp, #-4]!)
   104f4:	e59f000c 	ldr	r0, [pc, #12]	; 10508 <_start+0x40>
   104f8:	e79a0000 	ldr	r0, [sl, r0]
   104fc:	ebffffb5 	bl	103d8 <__libc_start_main@plt>
   10500:	ebffffc3 	bl	10414 <abort@plt>
   10504:	00010afc 	strdeq	r0, [r1], -ip
   10508:	00000028 	andeq	r0, r0, r8, lsr #32

0001050c <call_weak_fn>:
   1050c:	e59f3014 	ldr	r3, [pc, #20]	; 10528 <call_weak_fn+0x1c>
   10510:	e59f2014 	ldr	r2, [pc, #20]	; 1052c <call_weak_fn+0x20>
   10514:	e08f3003 	add	r3, pc, r3
   10518:	e7932002 	ldr	r2, [r3, r2]
   1051c:	e3520000 	cmp	r2, #0
   10520:	012fff1e 	bxeq	lr
   10524:	eaffffb1 	b	103f0 <__gmon_start__@plt>
   10528:	00010ae4 	andeq	r0, r1, r4, ror #21
   1052c:	00000024 	andeq	r0, r0, r4, lsr #32

00010530 <deregister_tm_clones>:
   10530:	e59f0018 	ldr	r0, [pc, #24]	; 10550 <deregister_tm_clones+0x20>
   10534:	e59f3018 	ldr	r3, [pc, #24]	; 10554 <deregister_tm_clones+0x24>
   10538:	e1530000 	cmp	r3, r0
   1053c:	012fff1e 	bxeq	lr
   10540:	e59f3010 	ldr	r3, [pc, #16]	; 10558 <deregister_tm_clones+0x28>
   10544:	e3530000 	cmp	r3, #0
   10548:	012fff1e 	bxeq	lr
   1054c:	e12fff13 	bx	r3
   10550:	00021034 	andeq	r1, r2, r4, lsr r0
   10554:	00021034 	andeq	r1, r2, r4, lsr r0
   10558:	00000000 	andeq	r0, r0, r0

0001055c <register_tm_clones>:
   1055c:	e59f0024 	ldr	r0, [pc, #36]	; 10588 <register_tm_clones+0x2c>
   10560:	e59f3024 	ldr	r3, [pc, #36]	; 1058c <register_tm_clones+0x30>
   10564:	e0433000 	sub	r3, r3, r0
   10568:	e1a01fa3 	lsr	r1, r3, #31
   1056c:	e0811143 	add	r1, r1, r3, asr #2
   10570:	e1b010c1 	asrs	r1, r1, #1
   10574:	012fff1e 	bxeq	lr
   10578:	e59f3010 	ldr	r3, [pc, #16]	; 10590 <register_tm_clones+0x34>
   1057c:	e3530000 	cmp	r3, #0
   10580:	012fff1e 	bxeq	lr
   10584:	e12fff13 	bx	r3
   10588:	00021034 	andeq	r1, r2, r4, lsr r0
   1058c:	00021034 	andeq	r1, r2, r4, lsr r0
   10590:	00000000 	andeq	r0, r0, r0

00010594 <__do_global_dtors_aux>:
   10594:	e92d4010 	push	{r4, lr}
   10598:	e59f4018 	ldr	r4, [pc, #24]	; 105b8 <__do_global_dtors_aux+0x24>
   1059c:	e5d43000 	ldrb	r3, [r4]
   105a0:	e3530000 	cmp	r3, #0
   105a4:	18bd8010 	popne	{r4, pc}
   105a8:	ebffffe0 	bl	10530 <deregister_tm_clones>
   105ac:	e3a03001 	mov	r3, #1
   105b0:	e5c43000 	strb	r3, [r4]
   105b4:	e8bd8010 	pop	{r4, pc}
   105b8:	00021034 	andeq	r1, r2, r4, lsr r0

000105bc <frame_dummy>:
   105bc:	eaffffe6 	b	1055c <register_tm_clones>

Disassembly of section .fini:

000105c0 <_fini>:
   105c0:	e92d4008 	push	{r3, lr}
   105c4:	e8bd8008 	pop	{r3, pc}
